; Function Attrs: mustprogress uwtable
define void @_ZN9grpc_core23ClientCompressionFilter4Call23OnServerToClientMessageESt10unique_ptrINS_7MessageENS_5Arena13PooledDeleterEEPS0_(ptr noalias sret(%"class.absl::lts_20230802::StatusOr.26") align 8 %agg.result, ptr nocapture noundef nonnull readonly align 4 dereferenceable(16) %this, ptr nocapture noundef %message, ptr nocapture noundef readonly %filter) local_unnamed_addr #3 align 2 personality ptr @__gxx_personality_v0 {
entry:
  %agg.tmp = alloca %"class.std::unique_ptr", align 8
  %compression_engine_ = getelementptr inbounds i8, ptr %filter, i64 24
  %0 = load i8, ptr %message, align 1
  store i8 %0, ptr %agg.tmp, align 8
  %1 = getelementptr inbounds i8, ptr %agg.tmp, i64 8
  %add.ptr.i.i.i.i.i = getelementptr inbounds i8, ptr %message, i64 8
  %2 = load i64, ptr %add.ptr.i.i.i.i.i, align 8
  store i64 %2, ptr %1, align 8
  store ptr null, ptr %add.ptr.i.i.i.i.i, align 8
  %decompress_args_ = getelementptr inbounds i8, ptr %this, i64 4
  %agg.tmp2.sroa.0.0.copyload = load i64, ptr %decompress_args_, align 4
  %agg.tmp2.sroa.2.0.decompress_args_.sroa_idx = getelementptr inbounds i8, ptr %this, i64 12
  %agg.tmp2.sroa.2.0.copyload = load i8, ptr %agg.tmp2.sroa.2.0.decompress_args_.sroa_idx, align 4
  invoke void @_ZNK9grpc_core18ChannelCompression17DecompressMessageESt10unique_ptrINS_7MessageENS_5Arena13PooledDeleterEENS0_14DecompressArgsE(ptr sret(%"class.absl::lts_20230802::StatusOr.26") align 8 %agg.result, ptr noundef nonnull align 8 dereferenceable(23) %compression_engine_, ptr noundef nonnull %agg.tmp, i64 %agg.tmp2.sroa.0.0.copyload, i8 %agg.tmp2.sroa.2.0.copyload)
          to label %invoke.cont unwind label %lpad

invoke.cont:                                      ; preds = %entry
  %3 = load ptr, ptr %1, align 8
  %cmp.not.i = icmp eq ptr %3, null
  br i1 %cmp.not.i, label %_ZNSt10unique_ptrIN9grpc_core7MessageENS0_5Arena13PooledDeleterEED2Ev.exit, label %if.then.i

if.then.i:                                        ; preds = %invoke.cont
  %4 = load i8, ptr %agg.tmp, align 8
  %5 = and i8 %4, 1
  %tobool.not.i.i = icmp eq i8 %5, 0
  br i1 %tobool.not.i.i, label %_ZNSt10unique_ptrIN9grpc_core7MessageENS0_5Arena13PooledDeleterEED2Ev.exit, label %delete.notnull.i.i

delete.notnull.i.i:                               ; preds = %if.then.i
  invoke void @grpc_slice_buffer_destroy(ptr noundef nonnull %3)
          to label %_ZN9grpc_core7MessageD2Ev.exit.i.i unwind label %terminate.lpad.i.i.i.i

terminate.lpad.i.i.i.i:                           ; preds = %delete.notnull.i.i
  %6 = landingpad { ptr, i32 }
          catch ptr null
  %7 = extractvalue { ptr, i32 } %6, 0
  tail call void @__clang_call_terminate(ptr %7) #24
  unreachable

_ZN9grpc_core7MessageD2Ev.exit.i.i:               ; preds = %delete.notnull.i.i
  tail call void @_ZdlPv(ptr noundef nonnull %3) #25
  br label %_ZNSt10unique_ptrIN9grpc_core7MessageENS0_5Arena13PooledDeleterEED2Ev.exit

_ZNSt10unique_ptrIN9grpc_core7MessageENS0_5Arena13PooledDeleterEED2Ev.exit: ; preds = %invoke.cont, %if.then.i, %_ZN9grpc_core7MessageD2Ev.exit.i.i
  ret void

lpad:                                             ; preds = %entry
  %8 = landingpad { ptr, i32 }
          cleanup
  call void @_ZNSt10unique_ptrIN9grpc_core7MessageENS0_5Arena13PooledDeleterEED2Ev(ptr noundef nonnull align 8 dereferenceable(16) %agg.tmp) #22
  resume { ptr, i32 } %8
}